; Function Attrs: nounwind uwtable
define ptr @l_Array_forIn_x27Unsafe_loop___at_Lake_LeanExe_recBuildExe___spec__18___boxed(ptr noundef %0, ptr noundef %1, ptr noundef %2, ptr noundef %3, ptr noundef %4, ptr noundef %5, ptr noundef %6, ptr noundef %7, ptr noundef %8, ptr noundef %9, ptr noundef %10, ptr noundef %11, ptr noundef %12, ptr noundef %13) local_unnamed_addr #0 {
  %15 = getelementptr i8, ptr %1, i64 8
  %.val27 = load i64, ptr %15, align 8, !tbaa !12
  %16 = ptrtoint ptr %1 to i64
  %17 = and i64 %16, 1
  %.not = icmp eq i64 %17, 0
  br i1 %.not, label %18, label %lean_dec.exit21

18:                                               ; preds = %14
  %19 = load i32, ptr %1, align 4, !tbaa !4
  %20 = icmp sgt i32 %19, 1
  br i1 %20, label %21, label %23, !prof !9

21:                                               ; preds = %18
  %22 = add nsw i32 %19, -1
  store i32 %22, ptr %1, align 4, !tbaa !4
  br label %lean_dec.exit21

23:                                               ; preds = %18
  %.not.i = icmp eq i32 %19, 0
  br i1 %.not.i, label %lean_dec.exit21, label %24

24:                                               ; preds = %23
  tail call void @lean_dec_ref_cold(ptr noundef nonnull %1) #6
  br label %lean_dec.exit21

lean_dec.exit21:                                  ; preds = %24, %23, %21, %14
  %25 = getelementptr i8, ptr %5, i64 8
  %.val26 = load i64, ptr %25, align 8, !tbaa !12
  %26 = ptrtoint ptr %5 to i64
  %27 = and i64 %26, 1
  %.not28 = icmp eq i64 %27, 0
  br i1 %.not28, label %28, label %lean_dec.exit20

28:                                               ; preds = %lean_dec.exit21
  %29 = load i32, ptr %5, align 4, !tbaa !4
  %30 = icmp sgt i32 %29, 1
  br i1 %30, label %31, label %33, !prof !9

31:                                               ; preds = %28
  %32 = add nsw i32 %29, -1
  store i32 %32, ptr %5, align 4, !tbaa !4
  br label %lean_dec.exit20

33:                                               ; preds = %28
  %.not.i22 = icmp eq i32 %29, 0
  br i1 %.not.i22, label %lean_dec.exit20, label %34

34:                                               ; preds = %33
  tail call void @lean_dec_ref_cold(ptr noundef nonnull %5) #6
  br label %lean_dec.exit20

lean_dec.exit20:                                  ; preds = %34, %33, %31, %lean_dec.exit21
  %35 = getelementptr i8, ptr %6, i64 8
  %.val = load i64, ptr %35, align 8, !tbaa !12
  %36 = ptrtoint ptr %6 to i64
  %37 = and i64 %36, 1
  %.not29 = icmp eq i64 %37, 0
  br i1 %.not29, label %38, label %lean_dec.exit

38:                                               ; preds = %lean_dec.exit20
  %39 = load i32, ptr %6, align 4, !tbaa !4
  %40 = icmp sgt i32 %39, 1
  br i1 %40, label %41, label %43, !prof !9

41:                                               ; preds = %38
  %42 = add nsw i32 %39, -1
  store i32 %42, ptr %6, align 4, !tbaa !4
  br label %lean_dec.exit

43:                                               ; preds = %38
  %.not.i24 = icmp eq i32 %39, 0
  br i1 %.not.i24, label %lean_dec.exit, label %44

44:                                               ; preds = %43
  tail call void @lean_dec_ref_cold(ptr noundef nonnull %6) #6
  br label %lean_dec.exit

lean_dec.exit:                                    ; preds = %44, %43, %41, %lean_dec.exit20
  %45 = tail call ptr @l_Array_forIn_x27Unsafe_loop___at_Lake_LeanExe_recBuildExe___spec__18(ptr noundef %0, i64 noundef %.val27, ptr noundef %2, ptr noundef %3, ptr noundef %4, i64 noundef %.val26, i64 noundef %.val, ptr noundef %7, ptr noundef %8, ptr noundef %9, ptr noundef %10, ptr noundef %11, ptr noundef %12, ptr noundef %13)
  ret ptr %45
}